; Function Attrs: mustprogress nofree norecurse nosync nounwind willreturn memory(read, inaccessiblemem: none) uwtable
define hidden noundef zeroext i1 @_ZN14ClassPrelinker11is_vm_classEP13InstanceKlass(ptr noundef %0) local_unnamed_addr #0 align 2 {
  %2 = load ptr, ptr @_ZN14ClassPrelinker11_vm_classesE, align 8
  %3 = ptrtoint ptr %0 to i64
  %4 = trunc i64 %3 to i32
  %5 = lshr i32 %4, 3
  %6 = xor i32 %5, %4
  %7 = urem i32 %6, 15889
  %8 = zext nneg i32 %7 to i64
  %9 = getelementptr inbounds ptr, ptr %2, i64 %8
  %10 = load ptr, ptr %9, align 8
  %.not11.i.i.i = icmp eq ptr %10, null
  br i1 %.not11.i.i.i, label %_ZNK21ResourceHashtableBaseI29FixedResourceHashtableStorageILj15889EP13InstanceKlassbES2_bLN6AnyObj15allocation_typeE2EL8MEMFLAGS13EXadL_Z14primitive_hashIS2_EjRKT_EEXadL_Z16primitive_equalsIS2_EbSA_SA_EEE3getERKS2_.exit, label %.lr.ph.i.i.i

.lr.ph.i.i.i:                                     ; preds = %1, %18
  %11 = phi ptr [ %20, %18 ], [ %10, %1 ]
  %12 = load i32, ptr %11, align 8
  %13 = icmp eq i32 %12, %6
  br i1 %13, label %14, label %18

14:                                               ; preds = %.lr.ph.i.i.i
  %15 = getelementptr inbounds i8, ptr %11, i64 8
  %16 = load ptr, ptr %15, align 8
  %17 = icmp eq ptr %16, %0
  br i1 %17, label %_ZNK21ResourceHashtableBaseI29FixedResourceHashtableStorageILj15889EP13InstanceKlassbES2_bLN6AnyObj15allocation_typeE2EL8MEMFLAGS13EXadL_Z14primitive_hashIS2_EjRKT_EEXadL_Z16primitive_equalsIS2_EbSA_SA_EEE3getERKS2_.exit, label %18

18:                                               ; preds = %14, %.lr.ph.i.i.i
  %19 = getelementptr inbounds i8, ptr %11, i64 24
  %20 = load ptr, ptr %19, align 8
  %.not.i.i.i = icmp eq ptr %20, null
  br i1 %.not.i.i.i, label %_ZNK21ResourceHashtableBaseI29FixedResourceHashtableStorageILj15889EP13InstanceKlassbES2_bLN6AnyObj15allocation_typeE2EL8MEMFLAGS13EXadL_Z14primitive_hashIS2_EjRKT_EEXadL_Z16primitive_equalsIS2_EbSA_SA_EEE3getERKS2_.exit, label %.lr.ph.i.i.i, !llvm.loop !6

_ZNK21ResourceHashtableBaseI29FixedResourceHashtableStorageILj15889EP13InstanceKlassbES2_bLN6AnyObj15allocation_typeE2EL8MEMFLAGS13EXadL_Z14primitive_hashIS2_EjRKT_EEXadL_Z16primitive_equalsIS2_EbSA_SA_EEE3getERKS2_.exit: ; preds = %14, %18, %1
  %not..not.i = phi i1 [ false, %1 ], [ false, %18 ], [ true, %14 ]
  ret i1 %not..not.i
}